target datalayout = "e-m:e-p270:32:32-p271:32:32-p272:64:64-i64:64-i128:128-f80:128-n8:16:32:64-S128"
target triple = "x86_64-pc-linux-gnu"

%struct.xorkey_st = type { [32 x i8], [32 x i8], i32, i32, ptr, %struct.CRYPTO_REF_COUNT }
%struct.CRYPTO_REF_COUNT = type { i32 }

@.str.19 = private unnamed_addr constant [5 x i8] c"priv\00", align 1
@.str.20 = private unnamed_addr constant [4 x i8] c"pub\00", align 1

; Function Attrs: nounwind uwtable
define internal i32 @xor_import(ptr noundef %0, i32 noundef %1, ptr noundef %2) #0 {
  %4 = alloca i32, align 4
  %5 = alloca ptr, align 8
  %6 = alloca i32, align 4
  %7 = alloca ptr, align 8
  %8 = alloca ptr, align 8
  %9 = alloca ptr, align 8
  %10 = alloca ptr, align 8
  %11 = alloca [32 x i8], align 16
  %12 = alloca [32 x i8], align 16
  %13 = alloca ptr, align 8
  %14 = alloca ptr, align 8
  %15 = alloca i64, align 8
  %16 = alloca i64, align 8
  %17 = alloca i32, align 4
  %18 = alloca i32, align 4
  store ptr %0, ptr %5, align 8, !tbaa !13
  store i32 %1, ptr %6, align 4, !tbaa !27
  store ptr %2, ptr %7, align 8, !tbaa !43
  call void @llvm.lifetime.start.p0(i64 8, ptr %8) #8
  %19 = load ptr, ptr %5, align 8, !tbaa !13
  store ptr %19, ptr %8, align 8, !tbaa !41
  call void @llvm.lifetime.start.p0(i64 8, ptr %9) #8
  call void @llvm.lifetime.start.p0(i64 8, ptr %10) #8
  call void @llvm.lifetime.start.p0(i64 32, ptr %11) #8
  call void @llvm.lifetime.start.p0(i64 32, ptr %12) #8
  call void @llvm.lifetime.start.p0(i64 8, ptr %13) #8
  %20 = getelementptr inbounds [32 x i8], ptr %11, i64 0, i64 0
  store ptr %20, ptr %13, align 8, !tbaa !13
  call void @llvm.lifetime.start.p0(i64 8, ptr %14) #8
  %21 = getelementptr inbounds [32 x i8], ptr %12, i64 0, i64 0
  store ptr %21, ptr %14, align 8, !tbaa !13
  call void @llvm.lifetime.start.p0(i64 8, ptr %15) #8
  store i64 0, ptr %15, align 8, !tbaa !35
  call void @llvm.lifetime.start.p0(i64 8, ptr %16) #8
  store i64 0, ptr %16, align 8, !tbaa !35
  call void @llvm.lifetime.start.p0(i64 4, ptr %17) #8
  store i32 0, ptr %17, align 4, !tbaa !27
  %22 = load ptr, ptr %8, align 8, !tbaa !41
  %23 = icmp eq ptr %22, null
  br i1 %23, label %28, label %24

24:                                               ; preds = %3
  %25 = load i32, ptr %6, align 4, !tbaa !27
  %26 = and i32 %25, 3
  %27 = icmp eq i32 %26, 0
  br i1 %27, label %28, label %29

28:                                               ; preds = %24, %3
  store i32 0, ptr %4, align 4
  store i32 1, ptr %18, align 4
  br label %75

29:                                               ; preds = %24
  %30 = getelementptr inbounds [32 x i8], ptr %11, i64 0, i64 0
  call void @llvm.memset.p0.i64(ptr align 16 %30, i8 0, i64 32, i1 false)
  %31 = getelementptr inbounds [32 x i8], ptr %12, i64 0, i64 0
  call void @llvm.memset.p0.i64(ptr align 16 %31, i8 0, i64 32, i1 false)
  %32 = load ptr, ptr %7, align 8, !tbaa !43
  %33 = call ptr @OSSL_PARAM_locate_const(ptr noundef %32, ptr noundef @.str.19)
  store ptr %33, ptr %9, align 8, !tbaa !43
  %34 = load ptr, ptr %7, align 8, !tbaa !43
  %35 = call ptr @OSSL_PARAM_locate_const(ptr noundef %34, ptr noundef @.str.20)
  store ptr %35, ptr %10, align 8, !tbaa !43
  %36 = load ptr, ptr %9, align 8, !tbaa !43
  %37 = icmp ne ptr %36, null
  br i1 %37, label %38, label %42

38:                                               ; preds = %29
  %39 = load ptr, ptr %9, align 8, !tbaa !43
  %40 = call i32 @OSSL_PARAM_get_octet_string(ptr noundef %39, ptr noundef %13, i64 noundef 32, ptr noundef %15)
  %41 = icmp ne i32 %40, 0
  br i1 %41, label %42, label %49

42:                                               ; preds = %38, %29
  %43 = load ptr, ptr %10, align 8, !tbaa !43
  %44 = icmp ne ptr %43, null
  br i1 %44, label %45, label %50

45:                                               ; preds = %42
  %46 = load ptr, ptr %10, align 8, !tbaa !43
  %47 = call i32 @OSSL_PARAM_get_octet_string(ptr noundef %46, ptr noundef %14, i64 noundef 32, ptr noundef %16)
  %48 = icmp ne i32 %47, 0
  br i1 %48, label %50, label %49

49:                                               ; preds = %45, %38
  br label %73

50:                                               ; preds = %45, %42
  %51 = load i64, ptr %15, align 8, !tbaa !35
  %52 = icmp ugt i64 %51, 0
  br i1 %52, label %53, label %61

53:                                               ; preds = %50
  %54 = load ptr, ptr %8, align 8, !tbaa !41
  %55 = getelementptr inbounds nuw %struct.xorkey_st, ptr %54, i32 0, i32 0
  %56 = getelementptr inbounds [32 x i8], ptr %55, i64 0, i64 0
  %57 = getelementptr inbounds [32 x i8], ptr %11, i64 0, i64 0
  %58 = load i64, ptr %15, align 8, !tbaa !35
  call void @llvm.memcpy.p0.p0.i64(ptr align 8 %56, ptr align 16 %57, i64 %58, i1 false)
  %59 = load ptr, ptr %8, align 8, !tbaa !41
  %60 = getelementptr inbounds nuw %struct.xorkey_st, ptr %59, i32 0, i32 2
  store i32 1, ptr %60, align 8, !tbaa !53
  br label %61

61:                                               ; preds = %53, %50
  %62 = load i64, ptr %16, align 8, !tbaa !35
  %63 = icmp ugt i64 %62, 0
  br i1 %63, label %64, label %72

64:                                               ; preds = %61
  %65 = load ptr, ptr %8, align 8, !tbaa !41
  %66 = getelementptr inbounds nuw %struct.xorkey_st, ptr %65, i32 0, i32 1
  %67 = getelementptr inbounds [32 x i8], ptr %66, i64 0, i64 0
  %68 = getelementptr inbounds [32 x i8], ptr %12, i64 0, i64 0
  %69 = load i64, ptr %16, align 8, !tbaa !35
  call void @llvm.memcpy.p0.p0.i64(ptr align 8 %67, ptr align 16 %68, i64 %69, i1 false)
  %70 = load ptr, ptr %8, align 8, !tbaa !41
  %71 = getelementptr inbounds nuw %struct.xorkey_st, ptr %70, i32 0, i32 3
  store i32 1, ptr %71, align 4, !tbaa !56
  br label %72

72:                                               ; preds = %64, %61
  store i32 1, ptr %17, align 4, !tbaa !27
  br label %73

73:                                               ; preds = %72, %49
  %74 = load i32, ptr %17, align 4, !tbaa !27
  store i32 %74, ptr %4, align 4
  store i32 1, ptr %18, align 4
  br label %75

75:                                               ; preds = %73, %28
  call void @llvm.lifetime.end.p0(i64 4, ptr %17) #8
  call void @llvm.lifetime.end.p0(i64 8, ptr %16) #8
  call void @llvm.lifetime.end.p0(i64 8, ptr %15) #8
  call void @llvm.lifetime.end.p0(i64 8, ptr %14) #8
  call void @llvm.lifetime.end.p0(i64 8, ptr %13) #8
  call void @llvm.lifetime.end.p0(i64 32, ptr %12) #8
  call void @llvm.lifetime.end.p0(i64 32, ptr %11) #8
  call void @llvm.lifetime.end.p0(i64 8, ptr %10) #8
  call void @llvm.lifetime.end.p0(i64 8, ptr %9) #8
  call void @llvm.lifetime.end.p0(i64 8, ptr %8) #8
  %76 = load i32, ptr %4, align 4
  ret i32 %76
}