; Function Attrs: nounwind uwtable
define internal range(i32 0, 2) i32 @xor_import(ptr noundef writeonly captures(address_is_null) %0, i32 noundef %1, ptr noundef %2) #0 {
  %4 = alloca [32 x i8], align 16
  %5 = alloca [32 x i8], align 16
  %6 = alloca ptr, align 8
  %7 = alloca ptr, align 8
  %8 = alloca i64, align 8
  %9 = alloca i64, align 8
  call void @llvm.lifetime.start.p0(i64 32, ptr nonnull %4) #16
  call void @llvm.lifetime.start.p0(i64 32, ptr nonnull %5) #16
  call void @llvm.lifetime.start.p0(i64 8, ptr nonnull %6) #16
  store ptr %4, ptr %6, align 8, !tbaa !10
  call void @llvm.lifetime.start.p0(i64 8, ptr nonnull %7) #16
  store ptr %5, ptr %7, align 8, !tbaa !10
  call void @llvm.lifetime.start.p0(i64 8, ptr nonnull %8) #16
  store i64 0, ptr %8, align 8, !tbaa !47
  call void @llvm.lifetime.start.p0(i64 8, ptr nonnull %9) #16
  store i64 0, ptr %9, align 8, !tbaa !47
  %10 = icmp eq ptr %0, null
  %11 = and i32 %1, 3
  %12 = icmp eq i32 %11, 0
  %or.cond = or i1 %10, %12
  br i1 %or.cond, label %30, label %13

13:                                               ; preds = %3
  call void @llvm.memset.p0.i64(ptr noundef nonnull align 16 dereferenceable(32) %4, i8 0, i64 32, i1 false)
  call void @llvm.memset.p0.i64(ptr noundef nonnull align 16 dereferenceable(32) %5, i8 0, i64 32, i1 false)
  %14 = call ptr @OSSL_PARAM_locate_const(ptr noundef %2, ptr noundef nonnull @.str.19) #16
  %15 = call ptr @OSSL_PARAM_locate_const(ptr noundef %2, ptr noundef nonnull @.str.20) #16
  %.not = icmp eq ptr %14, null
  br i1 %.not, label %18, label %16

16:                                               ; preds = %13
  %17 = call i32 @OSSL_PARAM_get_octet_string(ptr noundef nonnull %14, ptr noundef nonnull %6, i64 noundef 32, ptr noundef nonnull %8) #16
  %.not20 = icmp eq i32 %17, 0
  br i1 %.not20, label %30, label %18

18:                                               ; preds = %16, %13
  %.not21 = icmp eq ptr %15, null
  br i1 %.not21, label %21, label %19

19:                                               ; preds = %18
  %20 = call i32 @OSSL_PARAM_get_octet_string(ptr noundef nonnull %15, ptr noundef nonnull %7, i64 noundef 32, ptr noundef nonnull %9) #16
  %.not22 = icmp eq i32 %20, 0
  br i1 %.not22, label %30, label %21

21:                                               ; preds = %19, %18
  %22 = load i64, ptr %8, align 8, !tbaa !47
  %.not23 = icmp eq i64 %22, 0
  br i1 %.not23, label %25, label %23

23:                                               ; preds = %21
  call void @llvm.memcpy.p0.p0.i64(ptr nonnull align 8 %0, ptr nonnull align 16 %4, i64 %22, i1 false)
  %24 = getelementptr inbounds nuw i8, ptr %0, i64 64
  store i32 1, ptr %24, align 8, !tbaa !41
  br label %25

25:                                               ; preds = %23, %21
  %26 = load i64, ptr %9, align 8, !tbaa !47
  %.not24 = icmp eq i64 %26, 0
  br i1 %.not24, label %30, label %27

27:                                               ; preds = %25
  %28 = getelementptr inbounds nuw i8, ptr %0, i64 32
  call void @llvm.memcpy.p0.p0.i64(ptr nonnull align 8 %28, ptr nonnull align 16 %5, i64 %26, i1 false)
  %29 = getelementptr inbounds nuw i8, ptr %0, i64 68
  store i32 1, ptr %29, align 4, !tbaa !43
  br label %30

30:                                               ; preds = %19, %16, %27, %25, %3
  %.014 = phi i32 [ 0, %3 ], [ 0, %19 ], [ 0, %16 ], [ 1, %27 ], [ 1, %25 ]
  call void @llvm.lifetime.end.p0(i64 8, ptr nonnull %9) #16
  call void @llvm.lifetime.end.p0(i64 8, ptr nonnull %8) #16
  call void @llvm.lifetime.end.p0(i64 8, ptr nonnull %7) #16
  call void @llvm.lifetime.end.p0(i64 8, ptr nonnull %6) #16
  call void @llvm.lifetime.end.p0(i64 32, ptr nonnull %5) #16
  call void @llvm.lifetime.end.p0(i64 32, ptr nonnull %4) #16
  ret i32 %.014
}